; ModuleID = 'source-C-CXX/27/1268.c'
source_filename = "source-C-CXX/27/1268.c"
target datalayout = "e-m:e-p270:32:32-p271:32:32-p272:64:64-i64:64-f80:128-n8:16:32:64-S128"
target triple = "x86_64-pc-linux-gnu"

@.str = private unnamed_addr constant [4 x i8] c"%d,\00", align 1
@.str.1 = private unnamed_addr constant [3 x i8] c"%d\00", align 1

; Function Attrs: nounwind sspstrong uwtable
define dso_local void @main() local_unnamed_addr #0 {
  %1 = alloca [10000 x i8], align 16
  %2 = alloca [300 x i32], align 16
  %3 = getelementptr inbounds [10000 x i8], [10000 x i8]* %1, i64 0, i64 0
  call void @llvm.lifetime.start.p0i8(i64 10000, i8* nonnull %3) #4
  %4 = bitcast [300 x i32]* %2 to i8*
  call void @llvm.lifetime.start.p0i8(i64 1200, i8* nonnull %4) #4
  %5 = call i32 (i8*, ...) bitcast (i32 (...)* @gets to i32 (i8*, ...)*)(i8* nonnull %3) #4
  br label %6

6:                                                ; preds = %30, %0
  %7 = phi i64 [ %33, %30 ], [ 0, %0 ]
  %8 = phi i32 [ %31, %30 ], [ 0, %0 ]
  %9 = phi i32 [ %32, %30 ], [ 0, %0 ]
  %10 = getelementptr inbounds [10000 x i8], [10000 x i8]* %1, i64 0, i64 %7
  %11 = load i8, i8* %10, align 1, !tbaa !5
  switch i8 %11, label %17 [
    i8 0, label %12
    i8 32, label %30
  ]

12:                                               ; preds = %6
  %13 = add i32 %8, -1
  %14 = icmp sgt i32 %8, 1
  br i1 %14, label %15, label %41

15:                                               ; preds = %12
  %16 = zext i32 %13 to i64
  br label %34

17:                                               ; preds = %6
  %18 = icmp eq i32 %9, 0
  br i1 %18, label %19, label %23

19:                                               ; preds = %17
  %20 = add nsw i32 %8, 1
  %21 = sext i32 %8 to i64
  %22 = getelementptr inbounds [300 x i32], [300 x i32]* %2, i64 0, i64 %21
  store i32 0, i32* %22, align 4, !tbaa !8
  br label %23

23:                                               ; preds = %17, %19
  %24 = phi i32 [ %20, %19 ], [ %8, %17 ]
  %25 = add nsw i32 %24, -1
  %26 = sext i32 %25 to i64
  %27 = getelementptr inbounds [300 x i32], [300 x i32]* %2, i64 0, i64 %26
  %28 = load i32, i32* %27, align 4, !tbaa !8
  %29 = add nsw i32 %28, 1
  store i32 %29, i32* %27, align 4, !tbaa !8
  br label %30

30:                                               ; preds = %6, %23
  %31 = phi i32 [ %24, %23 ], [ %8, %6 ]
  %32 = phi i32 [ 1, %23 ], [ 0, %6 ]
  %33 = add nuw i64 %7, 1
  br label %6, !llvm.loop !10

34:                                               ; preds = %15, %34
  %35 = phi i64 [ 0, %15 ], [ %39, %34 ]
  %36 = getelementptr inbounds [300 x i32], [300 x i32]* %2, i64 0, i64 %35
  %37 = load i32, i32* %36, align 4, !tbaa !8
  %38 = call i32 (i8*, ...) @printf(i8* nonnull dereferenceable(1) getelementptr inbounds ([4 x i8], [4 x i8]* @.str, i64 0, i64 0), i32 %37)
  %39 = add nuw nsw i64 %35, 1
  %40 = icmp eq i64 %39, %16
  br i1 %40, label %41, label %34, !llvm.loop !12

41:                                               ; preds = %34, %12
  %42 = sext i32 %13 to i64
  %43 = getelementptr inbounds [300 x i32], [300 x i32]* %2, i64 0, i64 %42
  %44 = load i32, i32* %43, align 4, !tbaa !8
  %45 = call i32 (i8*, ...) @printf(i8* nonnull dereferenceable(1) getelementptr inbounds ([3 x i8], [3 x i8]* @.str.1, i64 0, i64 0), i32 %44)
  call void @llvm.lifetime.end.p0i8(i64 1200, i8* nonnull %4) #4
  call void @llvm.lifetime.end.p0i8(i64 10000, i8* nonnull %3) #4
  ret void
}

; Function Attrs: argmemonly mustprogress nofree nosync nounwind willreturn
declare void @llvm.lifetime.start.p0i8(i64 immarg, i8* nocapture) #1

declare i32 @gets(...) local_unnamed_addr #2

; Function Attrs: nofree nounwind
declare noundef i32 @printf(i8* nocapture noundef readonly, ...) local_unnamed_addr #3

; Function Attrs: argmemonly mustprogress nofree nosync nounwind willreturn
declare void @llvm.lifetime.end.p0i8(i64 immarg, i8* nocapture) #1


!llvm.module.flags = !{!0, !1, !2, !3}
!llvm.ident = !{!4}

!0 = !{i32 1, !"wchar_size", i32 4}
!1 = !{i32 7, !"PIC Level", i32 2}
!2 = !{i32 7, !"PIE Level", i32 2}
!3 = !{i32 7, !"uwtable", i32 1}
!4 = !{!"clang version 13.0.0"}
!5 = !{!6, !6, i64 0}
!6 = !{!"omnipotent char", !7, i64 0}
!7 = !{!"Simple C/C++ TBAA"}
!8 = !{!9, !9, i64 0}
!9 = !{!"int", !6, i64 0}
!10 = distinct !{!10, !11}
!11 = !{!"llvm.loop.mustprogress"}
!12 = distinct !{!12, !11}
